target datalayout = "e-m:e-p270:32:32-p271:32:32-p272:64:64-i64:64-i128:128-f80:128-n8:16:32:64-S128"
target triple = "x86_64-pc-linux-gnu"

; Function Attrs: nounwind uwtable
define internal void @trim_name(ptr noundef %0, ptr noundef %1, ptr noundef %2) #0 {
  %4 = alloca ptr, align 8
  %5 = alloca ptr, align 8
  %6 = alloca ptr, align 8
  %7 = alloca ptr, align 8
  %8 = alloca ptr, align 8
  %9 = alloca i64, align 8
  %10 = alloca i32, align 4
  %11 = alloca i64, align 8
  %12 = alloca i64, align 8
  store ptr %0, ptr %4, align 8, !tbaa !3
  store ptr %1, ptr %5, align 8, !tbaa !3
  store ptr %2, ptr %6, align 8, !tbaa !3
  call void @llvm.lifetime.start.p0(i64 8, ptr %7) #10
  call void @llvm.lifetime.start.p0(i64 8, ptr %8) #10
  call void @llvm.lifetime.start.p0(i64 8, ptr %9) #10
  %13 = load ptr, ptr %4, align 8, !tbaa !3
  %14 = icmp eq ptr null, %13
  br i1 %14, label %15, label %16

15:                                               ; preds = %3
  store i32 1, ptr %10, align 4
  br label %135

16:                                               ; preds = %3
  %17 = load ptr, ptr %4, align 8, !tbaa !3
  %18 = call i64 @strlen(ptr noundef %17) #11
  store i64 %18, ptr %9, align 8, !tbaa !8
  %19 = load ptr, ptr %4, align 8, !tbaa !3
  store ptr %19, ptr %7, align 8, !tbaa !3
  %20 = load ptr, ptr %5, align 8, !tbaa !3
  %21 = icmp ne ptr null, %20
  br i1 %21, label %22, label %35

22:                                               ; preds = %16
  call void @llvm.lifetime.start.p0(i64 8, ptr %11) #10
  %23 = load ptr, ptr %5, align 8, !tbaa !3
  %24 = call i64 @strlen(ptr noundef %23) #11
  store i64 %24, ptr %11, align 8, !tbaa !8
  %25 = load ptr, ptr %4, align 8, !tbaa !3
  %26 = load ptr, ptr %5, align 8, !tbaa !3
  %27 = load i64, ptr %11, align 8, !tbaa !8
  %28 = call i32 @strncmp(ptr noundef %25, ptr noundef %26, i64 noundef %27) #11
  %29 = icmp eq i32 0, %28
  br i1 %29, label %30, label %34

30:                                               ; preds = %22
  %31 = load i64, ptr %11, align 8, !tbaa !8
  %32 = load ptr, ptr %7, align 8, !tbaa !3
  %33 = getelementptr inbounds nuw i8, ptr %32, i64 %31
  store ptr %33, ptr %7, align 8, !tbaa !3
  br label %34

34:                                               ; preds = %30, %22
  call void @llvm.lifetime.end.p0(i64 8, ptr %11) #10
  br label %35

35:                                               ; preds = %34, %16
  br label %36

36:                                               ; preds = %48, %35
  %37 = call ptr @__ctype_b_loc() #13
  %38 = load ptr, ptr %37, align 8, !tbaa !49
  %39 = load ptr, ptr %7, align 8, !tbaa !3
  %40 = load i8, ptr %39, align 1, !tbaa !47
  %41 = sext i8 %40 to i32
  %42 = sext i32 %41 to i64
  %43 = getelementptr inbounds i16, ptr %38, i64 %42
  %44 = load i16, ptr %43, align 2, !tbaa !51
  %45 = zext i16 %44 to i32
  %46 = and i32 %45, 8192
  %47 = icmp ne i32 %46, 0
  br i1 %47, label %48, label %51

48:                                               ; preds = %36
  %49 = load ptr, ptr %7, align 8, !tbaa !3
  %50 = getelementptr inbounds nuw i8, ptr %49, i32 1
  store ptr %50, ptr %7, align 8, !tbaa !3
  br label %36, !llvm.loop !53

51:                                               ; preds = %36
  %52 = load ptr, ptr %4, align 8, !tbaa !3
  %53 = load i64, ptr %9, align 8, !tbaa !8
  %54 = getelementptr inbounds nuw i8, ptr %52, i64 %53
  store ptr %54, ptr %8, align 8, !tbaa !3
  br label %55

55:                                               ; preds = %74, %51
  %56 = load ptr, ptr %8, align 8, !tbaa !3
  %57 = load ptr, ptr %4, align 8, !tbaa !3
  %58 = icmp ugt ptr %56, %57
  br i1 %58, label %59, label %72

59:                                               ; preds = %55
  %60 = call ptr @__ctype_b_loc() #13
  %61 = load ptr, ptr %60, align 8, !tbaa !49
  %62 = load ptr, ptr %8, align 8, !tbaa !3
  %63 = getelementptr inbounds i8, ptr %62, i64 -1
  %64 = load i8, ptr %63, align 1, !tbaa !47
  %65 = sext i8 %64 to i32
  %66 = sext i32 %65 to i64
  %67 = getelementptr inbounds i16, ptr %61, i64 %66
  %68 = load i16, ptr %67, align 2, !tbaa !51
  %69 = zext i16 %68 to i32
  %70 = and i32 %69, 8192
  %71 = icmp ne i32 %70, 0
  br label %72

72:                                               ; preds = %59, %55
  %73 = phi i1 [ false, %55 ], [ %71, %59 ]
  br i1 %73, label %74, label %77

74:                                               ; preds = %72
  %75 = load ptr, ptr %8, align 8, !tbaa !3
  %76 = getelementptr inbounds i8, ptr %75, i32 -1
  store ptr %76, ptr %8, align 8, !tbaa !3
  br label %55, !llvm.loop !54

77:                                               ; preds = %72
  %78 = load ptr, ptr %8, align 8, !tbaa !3
  %79 = getelementptr inbounds i8, ptr %78, i64 0
  store i8 0, ptr %79, align 1, !tbaa !47
  %80 = load ptr, ptr %6, align 8, !tbaa !3
  %81 = icmp ne ptr null, %80
  br i1 %81, label %82, label %124

82:                                               ; preds = %77
  %83 = load ptr, ptr %8, align 8, !tbaa !3
  %84 = load ptr, ptr %4, align 8, !tbaa !3
  %85 = ptrtoint ptr %83 to i64
  %86 = ptrtoint ptr %84 to i64
  %87 = sub i64 %85, %86
  %88 = load ptr, ptr %6, align 8, !tbaa !3
  %89 = call i64 @strlen(ptr noundef %88) #11
  %90 = icmp ugt i64 %87, %89
  br i1 %90, label %91, label %124

91:                                               ; preds = %82
  call void @llvm.lifetime.start.p0(i64 8, ptr %12) #10
  %92 = load ptr, ptr %6, align 8, !tbaa !3
  %93 = call i64 @strlen(ptr noundef %92) #11
  store i64 %93, ptr %12, align 8, !tbaa !8
  %94 = load i64, ptr %12, align 8, !tbaa !8
  %95 = load ptr, ptr %8, align 8, !tbaa !3
  %96 = sub i64 0, %94
  %97 = getelementptr inbounds i8, ptr %95, i64 %96
  store ptr %97, ptr %8, align 8, !tbaa !3
  %98 = load ptr, ptr %8, align 8, !tbaa !3
  %99 = load ptr, ptr %6, align 8, !tbaa !3
  %100 = load ptr, ptr %6, align 8, !tbaa !3
  %101 = call i64 @strlen(ptr noundef %100) #11
  %102 = call i32 @strncmp(ptr noundef %98, ptr noundef %99, i64 noundef %101) #11
  %103 = icmp eq i32 0, %102
  br i1 %103, label %104, label %123

104:                                              ; preds = %91
  br label %105

105:                                              ; preds = %108, %104
  %106 = load ptr, ptr %8, align 8, !tbaa !3
  %107 = getelementptr inbounds i8, ptr %106, i32 -1
  store ptr %107, ptr %8, align 8, !tbaa !3
  br label %108

108:                                              ; preds = %105
  %109 = call ptr @__ctype_b_loc() #13
  %110 = load ptr, ptr %109, align 8, !tbaa !49
  %111 = load ptr, ptr %8, align 8, !tbaa !3
  %112 = load i8, ptr %111, align 1, !tbaa !47
  %113 = sext i8 %112 to i32
  %114 = sext i32 %113 to i64
  %115 = getelementptr inbounds i16, ptr %110, i64 %114
  %116 = load i16, ptr %115, align 2, !tbaa !51
  %117 = zext i16 %116 to i32
  %118 = and i32 %117, 8192
  %119 = icmp ne i32 %118, 0
  br i1 %119, label %105, label %120, !llvm.loop !55

120:                                              ; preds = %108
  %121 = load ptr, ptr %8, align 8, !tbaa !3
  %122 = getelementptr inbounds i8, ptr %121, i64 1
  store i8 0, ptr %122, align 1, !tbaa !47
  br label %123

123:                                              ; preds = %120, %91
  call void @llvm.lifetime.end.p0(i64 8, ptr %12) #10
  br label %124

124:                                              ; preds = %123, %82, %77
  %125 = load ptr, ptr %4, align 8, !tbaa !3
  %126 = load ptr, ptr %7, align 8, !tbaa !3
  %127 = icmp ne ptr %125, %126
  br i1 %127, label %128, label %134

128:                                              ; preds = %124
  %129 = load ptr, ptr %4, align 8, !tbaa !3
  %130 = load ptr, ptr %7, align 8, !tbaa !3
  %131 = load ptr, ptr %7, align 8, !tbaa !3
  %132 = call i64 @strlen(ptr noundef %131) #11
  %133 = add i64 %132, 1
  call void @llvm.memmove.p0.p0.i64(ptr align 1 %129, ptr align 1 %130, i64 %133, i1 false)
  br label %134

134:                                              ; preds = %128, %124
  store i32 0, ptr %10, align 4
  br label %135

135:                                              ; preds = %134, %15
  call void @llvm.lifetime.end.p0(i64 8, ptr %9) #10
  call void @llvm.lifetime.end.p0(i64 8, ptr %8) #10
  call void @llvm.lifetime.end.p0(i64 8, ptr %7) #10
  %136 = load i32, ptr %10, align 4
  switch i32 %136, label %138 [
    i32 0, label %137
    i32 1, label %137
  ]

137:                                              ; preds = %135, %135
  ret void

138:                                              ; preds = %135
  unreachable
}