; Function Attrs: nofree nounwind memory(read, argmem: readwrite, inaccessiblemem: none) uwtable
define internal fastcc void @trim_name(ptr noundef %0, ptr noundef readonly captures(address_is_null) %1, ptr noundef readonly captures(address_is_null) %2) unnamed_addr #7 {
  %4 = icmp eq ptr %0, null
  br i1 %4, label %56, label %5

5:                                                ; preds = %3
  %6 = tail call i64 @strlen(ptr noundef nonnull dereferenceable(1) %0) #15
  %.not = icmp eq ptr %1, null
  br i1 %.not, label %11, label %7

7:                                                ; preds = %5
  %8 = tail call i64 @strlen(ptr noundef nonnull dereferenceable(1) %1) #15
  %9 = tail call i32 @strncmp(ptr noundef nonnull %0, ptr noundef nonnull %1, i64 noundef %8) #15
  %10 = icmp eq i32 %9, 0
  %spec.select.idx = select i1 %10, i64 %8, i64 0
  %spec.select = getelementptr inbounds nuw i8, ptr %0, i64 %spec.select.idx
  br label %11

11:                                               ; preds = %7, %5
  %.0 = phi ptr [ %spec.select, %7 ], [ %0, %5 ]
  %12 = tail call ptr @__ctype_b_loc() #17
  %13 = load ptr, ptr %12, align 8, !tbaa !31
  br label %14

14:                                               ; preds = %14, %11
  %.2 = phi ptr [ %.0, %11 ], [ %20, %14 ]
  %15 = load i8, ptr %.2, align 1, !tbaa !33
  %16 = sext i8 %15 to i64
  %17 = getelementptr inbounds i16, ptr %13, i64 %16
  %18 = load i16, ptr %17, align 2, !tbaa !34
  %19 = and i16 %18, 8192
  %.not42 = icmp eq i16 %19, 0
  %20 = getelementptr inbounds nuw i8, ptr %.2, i64 1
  br i1 %.not42, label %21, label %14, !llvm.loop !36

21:                                               ; preds = %14
  %22 = getelementptr inbounds nuw i8, ptr %0, i64 %6
  br label %23

23:                                               ; preds = %25, %21
  %.036 = phi ptr [ %22, %21 ], [ %26, %25 ]
  %24 = icmp ugt ptr %.036, %0
  br i1 %24, label %25, label %.critedge

25:                                               ; preds = %23
  %26 = getelementptr inbounds i8, ptr %.036, i64 -1
  %27 = load i8, ptr %26, align 1, !tbaa !33
  %28 = sext i8 %27 to i64
  %29 = getelementptr inbounds i16, ptr %13, i64 %28
  %30 = load i16, ptr %29, align 2, !tbaa !34
  %31 = and i16 %30, 8192
  %.not43 = icmp eq i16 %31, 0
  br i1 %.not43, label %.critedge, label %23, !llvm.loop !37

.critedge:                                        ; preds = %23, %25
  store i8 0, ptr %.036, align 1, !tbaa !33
  %.not44 = icmp eq ptr %2, null
  br i1 %.not44, label %52, label %32

32:                                               ; preds = %.critedge
  %33 = ptrtoint ptr %.036 to i64
  %34 = ptrtoint ptr %0 to i64
  %35 = sub i64 %33, %34
  %36 = tail call i64 @strlen(ptr noundef nonnull dereferenceable(1) %2) #15
  %37 = icmp ugt i64 %35, %36
  br i1 %37, label %38, label %52

38:                                               ; preds = %32
  %39 = sub i64 0, %36
  %40 = getelementptr inbounds i8, ptr %.036, i64 %39
  %41 = tail call i32 @strncmp(ptr noundef nonnull %40, ptr noundef nonnull %2, i64 noundef %36) #15
  %42 = icmp eq i32 %41, 0
  br i1 %42, label %.preheader, label %52

.preheader:                                       ; preds = %38
  %43 = load ptr, ptr %12, align 8, !tbaa !31
  br label %44

44:                                               ; preds = %.preheader, %44
  %.137 = phi ptr [ %45, %44 ], [ %40, %.preheader ]
  %45 = getelementptr inbounds i8, ptr %.137, i64 -1
  %46 = load i8, ptr %45, align 1, !tbaa !33
  %47 = sext i8 %46 to i64
  %48 = getelementptr inbounds i16, ptr %43, i64 %47
  %49 = load i16, ptr %48, align 2, !tbaa !34
  %50 = and i16 %49, 8192
  %.not45 = icmp eq i16 %50, 0
  br i1 %.not45, label %51, label %44, !llvm.loop !40

51:                                               ; preds = %44
  store i8 0, ptr %.137, align 1, !tbaa !33
  br label %52

52:                                               ; preds = %38, %51, %32, %.critedge
  %.not46 = icmp eq ptr %0, %.2
  br i1 %.not46, label %56, label %53

53:                                               ; preds = %52
  %54 = tail call i64 @strlen(ptr noundef nonnull dereferenceable(1) %.2) #15
  %55 = add i64 %54, 1
  tail call void @llvm.memmove.p0.p0.i64(ptr nonnull align 1 %0, ptr nonnull align 1 %.2, i64 %55, i1 false)
  br label %56

56:                                               ; preds = %52, %53, %3
  ret void
}